; ModuleID = '8/627.c'
source_filename = "8/627.c"
target datalayout = "e-m:e-p270:32:32-p271:32:32-p272:64:64-i64:64-f80:128-n8:16:32:64-S128"
target triple = "x86_64-pc-linux-gnu"

@.str = private unnamed_addr constant [5 x i8] c"%d%d\00", align 1
@.str.1 = private unnamed_addr constant [3 x i8] c"%d\00", align 1
@.str.2 = private unnamed_addr constant [4 x i8] c" %d\00", align 1

; Function Attrs: noinline nounwind uwtable
define dso_local void @main() #0 {
  %1 = alloca i32, align 4
  %2 = alloca i32, align 4
  %3 = alloca i32, align 4
  %4 = alloca i32, align 4
  %5 = alloca [200 x i32], align 16
  %6 = alloca [200 x i32], align 16
  %7 = alloca i32, align 4
  %8 = alloca i32*, align 8
  %9 = alloca i32*, align 8
  %10 = bitcast [200 x i32]* %5 to i8*
  call void @llvm.memset.p0i8.i64(i8* align 16 %10, i8 0, i64 800, i1 false)
  %11 = bitcast [200 x i32]* %6 to i8*
  call void @llvm.memset.p0i8.i64(i8* align 16 %11, i8 0, i64 800, i1 false)
  %12 = getelementptr inbounds [200 x i32], [200 x i32]* %5, i64 0, i64 0
  store i32* %12, i32** %8, align 8
  %13 = getelementptr inbounds [200 x i32], [200 x i32]* %6, i64 0, i64 0
  store i32* %13, i32** %9, align 8
  %14 = call i32 (i8*, ...) @__isoc99_scanf(i8* getelementptr inbounds ([5 x i8], [5 x i8]* @.str, i64 0, i64 0), i32* %3, i32* %4)
  store i32 0, i32* %1, align 4
  br label %15

15:                                               ; preds = %24, %0
  %16 = load i32, i32* %1, align 4
  %17 = load i32, i32* %3, align 4
  %18 = icmp slt i32 %16, %17
  br i1 %18, label %19, label %27

19:                                               ; preds = %15
  %20 = load i32, i32* %1, align 4
  %21 = sext i32 %20 to i64
  %22 = getelementptr inbounds [200 x i32], [200 x i32]* %5, i64 0, i64 %21
  %23 = call i32 (i8*, ...) @__isoc99_scanf(i8* getelementptr inbounds ([3 x i8], [3 x i8]* @.str.1, i64 0, i64 0), i32* %22)
  br label %24

24:                                               ; preds = %19
  %25 = load i32, i32* %1, align 4
  %26 = add nsw i32 %25, 1
  store i32 %26, i32* %1, align 4
  br label %15

27:                                               ; preds = %15
  store i32 0, i32* %1, align 4
  br label %28

28:                                               ; preds = %37, %27
  %29 = load i32, i32* %1, align 4
  %30 = load i32, i32* %4, align 4
  %31 = icmp slt i32 %29, %30
  br i1 %31, label %32, label %40

32:                                               ; preds = %28
  %33 = load i32, i32* %1, align 4
  %34 = sext i32 %33 to i64
  %35 = getelementptr inbounds [200 x i32], [200 x i32]* %6, i64 0, i64 %34
  %36 = call i32 (i8*, ...) @__isoc99_scanf(i8* getelementptr inbounds ([3 x i8], [3 x i8]* @.str.1, i64 0, i64 0), i32* %35)
  br label %37

37:                                               ; preds = %32
  %38 = load i32, i32* %1, align 4
  %39 = add nsw i32 %38, 1
  store i32 %39, i32* %1, align 4
  br label %28

40:                                               ; preds = %28
  store i32 0, i32* %1, align 4
  br label %41

41:                                               ; preds = %94, %40
  %42 = load i32, i32* %1, align 4
  %43 = load i32, i32* %3, align 4
  %44 = sub nsw i32 %43, 1
  %45 = icmp slt i32 %42, %44
  br i1 %45, label %46, label %97

46:                                               ; preds = %41
  store i32 0, i32* %2, align 4
  br label %47

47:                                               ; preds = %90, %46
  %48 = load i32, i32* %2, align 4
  %49 = load i32, i32* %3, align 4
  %50 = load i32, i32* %1, align 4
  %51 = sub nsw i32 %49, %50
  %52 = sub nsw i32 %51, 1
  %53 = icmp slt i32 %48, %52
  br i1 %53, label %54, label %93

54:                                               ; preds = %47
  %55 = load i32*, i32** %8, align 8
  %56 = load i32, i32* %2, align 4
  %57 = sext i32 %56 to i64
  %58 = getelementptr inbounds i32, i32* %55, i64 %57
  %59 = load i32, i32* %58, align 4
  %60 = load i32*, i32** %8, align 8
  %61 = load i32, i32* %2, align 4
  %62 = sext i32 %61 to i64
  %63 = getelementptr inbounds i32, i32* %60, i64 %62
  %64 = getelementptr inbounds i32, i32* %63, i64 1
  %65 = load i32, i32* %64, align 4
  %66 = icmp sgt i32 %59, %65
  br i1 %66, label %67, label %89

67:                                               ; preds = %54
  %68 = load i32*, i32** %8, align 8
  %69 = load i32, i32* %2, align 4
  %70 = sext i32 %69 to i64
  %71 = getelementptr inbounds i32, i32* %68, i64 %70
  %72 = load i32, i32* %71, align 4
  store i32 %72, i32* %7, align 4
  %73 = load i32*, i32** %8, align 8
  %74 = load i32, i32* %2, align 4
  %75 = sext i32 %74 to i64
  %76 = getelementptr inbounds i32, i32* %73, i64 %75
  %77 = getelementptr inbounds i32, i32* %76, i64 1
  %78 = load i32, i32* %77, align 4
  %79 = load i32*, i32** %8, align 8
  %80 = load i32, i32* %2, align 4
  %81 = sext i32 %80 to i64
  %82 = getelementptr inbounds i32, i32* %79, i64 %81
  store i32 %78, i32* %82, align 4
  %83 = load i32, i32* %7, align 4
  %84 = load i32*, i32** %8, align 8
  %85 = load i32, i32* %2, align 4
  %86 = sext i32 %85 to i64
  %87 = getelementptr inbounds i32, i32* %84, i64 %86
  %88 = getelementptr inbounds i32, i32* %87, i64 1
  store i32 %83, i32* %88, align 4
  br label %89

89:                                               ; preds = %67, %54
  br label %90

90:                                               ; preds = %89
  %91 = load i32, i32* %2, align 4
  %92 = add nsw i32 %91, 1
  store i32 %92, i32* %2, align 4
  br label %47

93:                                               ; preds = %47
  br label %94

94:                                               ; preds = %93
  %95 = load i32, i32* %1, align 4
  %96 = add nsw i32 %95, 1
  store i32 %96, i32* %1, align 4
  br label %41

97:                                               ; preds = %41
  %98 = getelementptr inbounds [200 x i32], [200 x i32]* %5, i64 0, i64 0
  %99 = load i32, i32* %98, align 16
  %100 = call i32 (i8*, ...) @printf(i8* getelementptr inbounds ([3 x i8], [3 x i8]* @.str.1, i64 0, i64 0), i32 %99)
  store i32 1, i32* %1, align 4
  br label %101

101:                                              ; preds = %111, %97
  %102 = load i32, i32* %1, align 4
  %103 = load i32, i32* %3, align 4
  %104 = icmp slt i32 %102, %103
  br i1 %104, label %105, label %114

105:                                              ; preds = %101
  %106 = load i32, i32* %1, align 4
  %107 = sext i32 %106 to i64
  %108 = getelementptr inbounds [200 x i32], [200 x i32]* %5, i64 0, i64 %107
  %109 = load i32, i32* %108, align 4
  %110 = call i32 (i8*, ...) @printf(i8* getelementptr inbounds ([4 x i8], [4 x i8]* @.str.2, i64 0, i64 0), i32 %109)
  br label %111

111:                                              ; preds = %105
  %112 = load i32, i32* %1, align 4
  %113 = add nsw i32 %112, 1
  store i32 %113, i32* %1, align 4
  br label %101

114:                                              ; preds = %101
  store i32 0, i32* %1, align 4
  br label %115

115:                                              ; preds = %168, %114
  %116 = load i32, i32* %1, align 4
  %117 = load i32, i32* %4, align 4
  %118 = sub nsw i32 %117, 1
  %119 = icmp slt i32 %116, %118
  br i1 %119, label %120, label %171

120:                                              ; preds = %115
  store i32 0, i32* %2, align 4
  br label %121

121:                                              ; preds = %164, %120
  %122 = load i32, i32* %2, align 4
  %123 = load i32, i32* %4, align 4
  %124 = load i32, i32* %1, align 4
  %125 = sub nsw i32 %123, %124
  %126 = sub nsw i32 %125, 1
  %127 = icmp slt i32 %122, %126
  br i1 %127, label %128, label %167

128:                                              ; preds = %121
  %129 = load i32*, i32** %9, align 8
  %130 = load i32, i32* %2, align 4
  %131 = sext i32 %130 to i64
  %132 = getelementptr inbounds i32, i32* %129, i64 %131
  %133 = load i32, i32* %132, align 4
  %134 = load i32*, i32** %9, align 8
  %135 = load i32, i32* %2, align 4
  %136 = sext i32 %135 to i64
  %137 = getelementptr inbounds i32, i32* %134, i64 %136
  %138 = getelementptr inbounds i32, i32* %137, i64 1
  %139 = load i32, i32* %138, align 4
  %140 = icmp sgt i32 %133, %139
  br i1 %140, label %141, label %163

141:                                              ; preds = %128
  %142 = load i32*, i32** %9, align 8
  %143 = load i32, i32* %2, align 4
  %144 = sext i32 %143 to i64
  %145 = getelementptr inbounds i32, i32* %142, i64 %144
  %146 = load i32, i32* %145, align 4
  store i32 %146, i32* %7, align 4
  %147 = load i32*, i32** %9, align 8
  %148 = load i32, i32* %2, align 4
  %149 = sext i32 %148 to i64
  %150 = getelementptr inbounds i32, i32* %147, i64 %149
  %151 = getelementptr inbounds i32, i32* %150, i64 1
  %152 = load i32, i32* %151, align 4
  %153 = load i32*, i32** %9, align 8
  %154 = load i32, i32* %2, align 4
  %155 = sext i32 %154 to i64
  %156 = getelementptr inbounds i32, i32* %153, i64 %155
  store i32 %152, i32* %156, align 4
  %157 = load i32, i32* %7, align 4
  %158 = load i32*, i32** %9, align 8
  %159 = load i32, i32* %2, align 4
  %160 = sext i32 %159 to i64
  %161 = getelementptr inbounds i32, i32* %158, i64 %160
  %162 = getelementptr inbounds i32, i32* %161, i64 1
  store i32 %157, i32* %162, align 4
  br label %163

163:                                              ; preds = %141, %128
  br label %164

164:                                              ; preds = %163
  %165 = load i32, i32* %2, align 4
  %166 = add nsw i32 %165, 1
  store i32 %166, i32* %2, align 4
  br label %121

167:                                              ; preds = %121
  br label %168

168:                                              ; preds = %167
  %169 = load i32, i32* %1, align 4
  %170 = add nsw i32 %169, 1
  store i32 %170, i32* %1, align 4
  br label %115

171:                                              ; preds = %115
  store i32 0, i32* %1, align 4
  br label %172

172:                                              ; preds = %182, %171
  %173 = load i32, i32* %1, align 4
  %174 = load i32, i32* %4, align 4
  %175 = icmp slt i32 %173, %174
  br i1 %175, label %176, label %185

176:                                              ; preds = %172
  %177 = load i32, i32* %1, align 4
  %178 = sext i32 %177 to i64
  %179 = getelementptr inbounds [200 x i32], [200 x i32]* %6, i64 0, i64 %178
  %180 = load i32, i32* %179, align 4
  %181 = call i32 (i8*, ...) @printf(i8* getelementptr inbounds ([4 x i8], [4 x i8]* @.str.2, i64 0, i64 0), i32 %180)
  br label %182

182:                                              ; preds = %176
  %183 = load i32, i32* %1, align 4
  %184 = add nsw i32 %183, 1
  store i32 %184, i32* %1, align 4
  br label %172

185:                                              ; preds = %172
  ret void
}

; Function Attrs: argmemonly nounwind willreturn
declare void @llvm.memset.p0i8.i64(i8* nocapture writeonly, i8, i64, i1 immarg) #1

declare dso_local i32 @__isoc99_scanf(i8*, ...) #2

declare dso_local i32 @printf(i8*, ...) #2


!llvm.module.flags = !{!0}
!llvm.ident = !{!1}

!0 = !{i32 1, !"wchar_size", i32 4}
!1 = !{!"clang version 10.0.0-4ubuntu1 "}
